target datalayout = "e-m:e-p270:32:32-p271:32:32-p272:64:64-i64:64-i128:128-f80:128-n8:16:32:64-S128"
target triple = "x86_64-pc-linux-gnu"

%struct.hwloc__xml_export_state_s = type { ptr, ptr, ptr, ptr, ptr, ptr, [48 x i8] }
%struct.hwloc__libxml_export_state_data_s = type { ptr }

; Function Attrs: nounwind uwtable
define internal void @hwloc__libxml_export_new_child(ptr noundef %0, ptr noundef %1, ptr noundef %2) #0 {
  %4 = alloca ptr, align 8
  %5 = alloca ptr, align 8
  %6 = alloca ptr, align 8
  %7 = alloca ptr, align 8
  %8 = alloca ptr, align 8
  store ptr %0, ptr %4, align 8, !tbaa !87
  store ptr %1, ptr %5, align 8, !tbaa !87
  store ptr %2, ptr %6, align 8, !tbaa !7
  call void @llvm.lifetime.start.p0(i64 8, ptr %7) #7
  %9 = load ptr, ptr %4, align 8, !tbaa !87
  %10 = getelementptr inbounds nuw %struct.hwloc__xml_export_state_s, ptr %9, i32 0, i32 6
  %11 = getelementptr inbounds [48 x i8], ptr %10, i64 0, i64 0
  store ptr %11, ptr %7, align 8, !tbaa !78
  call void @llvm.lifetime.start.p0(i64 8, ptr %8) #7
  %12 = load ptr, ptr %5, align 8, !tbaa !87
  %13 = getelementptr inbounds nuw %struct.hwloc__xml_export_state_s, ptr %12, i32 0, i32 6
  %14 = getelementptr inbounds [48 x i8], ptr %13, i64 0, i64 0
  store ptr %14, ptr %8, align 8, !tbaa !78
  %15 = load ptr, ptr %4, align 8, !tbaa !87
  %16 = load ptr, ptr %5, align 8, !tbaa !87
  %17 = getelementptr inbounds nuw %struct.hwloc__xml_export_state_s, ptr %16, i32 0, i32 0
  store ptr %15, ptr %17, align 8, !tbaa !88
  %18 = load ptr, ptr %4, align 8, !tbaa !87
  %19 = getelementptr inbounds nuw %struct.hwloc__xml_export_state_s, ptr %18, i32 0, i32 1
  %20 = load ptr, ptr %19, align 8, !tbaa !80
  %21 = load ptr, ptr %5, align 8, !tbaa !87
  %22 = getelementptr inbounds nuw %struct.hwloc__xml_export_state_s, ptr %21, i32 0, i32 1
  store ptr %20, ptr %22, align 8, !tbaa !80
  %23 = load ptr, ptr %4, align 8, !tbaa !87
  %24 = getelementptr inbounds nuw %struct.hwloc__xml_export_state_s, ptr %23, i32 0, i32 2
  %25 = load ptr, ptr %24, align 8, !tbaa !83
  %26 = load ptr, ptr %5, align 8, !tbaa !87
  %27 = getelementptr inbounds nuw %struct.hwloc__xml_export_state_s, ptr %26, i32 0, i32 2
  store ptr %25, ptr %27, align 8, !tbaa !83
  %28 = load ptr, ptr %4, align 8, !tbaa !87
  %29 = getelementptr inbounds nuw %struct.hwloc__xml_export_state_s, ptr %28, i32 0, i32 3
  %30 = load ptr, ptr %29, align 8, !tbaa !84
  %31 = load ptr, ptr %5, align 8, !tbaa !87
  %32 = getelementptr inbounds nuw %struct.hwloc__xml_export_state_s, ptr %31, i32 0, i32 3
  store ptr %30, ptr %32, align 8, !tbaa !84
  %33 = load ptr, ptr %4, align 8, !tbaa !87
  %34 = getelementptr inbounds nuw %struct.hwloc__xml_export_state_s, ptr %33, i32 0, i32 4
  %35 = load ptr, ptr %34, align 8, !tbaa !85
  %36 = load ptr, ptr %5, align 8, !tbaa !87
  %37 = getelementptr inbounds nuw %struct.hwloc__xml_export_state_s, ptr %36, i32 0, i32 4
  store ptr %35, ptr %37, align 8, !tbaa !85
  %38 = load ptr, ptr %4, align 8, !tbaa !87
  %39 = getelementptr inbounds nuw %struct.hwloc__xml_export_state_s, ptr %38, i32 0, i32 5
  %40 = load ptr, ptr %39, align 8, !tbaa !86
  %41 = load ptr, ptr %5, align 8, !tbaa !87
  %42 = getelementptr inbounds nuw %struct.hwloc__xml_export_state_s, ptr %41, i32 0, i32 5
  store ptr %40, ptr %42, align 8, !tbaa !86
  %43 = load ptr, ptr %7, align 8, !tbaa !78
  %44 = getelementptr inbounds nuw %struct.hwloc__libxml_export_state_data_s, ptr %43, i32 0, i32 0
  %45 = load ptr, ptr %44, align 8, !tbaa !59
  %46 = load ptr, ptr %6, align 8, !tbaa !7
  %47 = call ptr @xmlNewChild(ptr noundef %45, ptr noundef null, ptr noundef %46, ptr noundef null)
  %48 = load ptr, ptr %8, align 8, !tbaa !78
  %49 = getelementptr inbounds nuw %struct.hwloc__libxml_export_state_data_s, ptr %48, i32 0, i32 0
  store ptr %47, ptr %49, align 8, !tbaa !59
  call void @llvm.lifetime.end.p0(i64 8, ptr %8) #7
  call void @llvm.lifetime.end.p0(i64 8, ptr %7) #7
  ret void
}