; Function Attrs: nounwind uwtable
define internal void @hwloc__libxml_export_new_child(ptr noundef %0, ptr noundef writeonly captures(none) initializes((0, 56)) %1, ptr noundef %2) #1 {
  %4 = getelementptr inbounds nuw i8, ptr %0, i64 48
  %5 = getelementptr inbounds nuw i8, ptr %1, i64 48
  store ptr %0, ptr %1, align 8, !tbaa !62
  %6 = getelementptr inbounds nuw i8, ptr %0, i64 8
  %7 = load ptr, ptr %6, align 8, !tbaa !54
  %8 = getelementptr inbounds nuw i8, ptr %1, i64 8
  store ptr %7, ptr %8, align 8, !tbaa !54
  %9 = getelementptr inbounds nuw i8, ptr %0, i64 16
  %10 = load ptr, ptr %9, align 8, !tbaa !58
  %11 = getelementptr inbounds nuw i8, ptr %1, i64 16
  store ptr %10, ptr %11, align 8, !tbaa !58
  %12 = getelementptr inbounds nuw i8, ptr %0, i64 24
  %13 = load ptr, ptr %12, align 8, !tbaa !59
  %14 = getelementptr inbounds nuw i8, ptr %1, i64 24
  store ptr %13, ptr %14, align 8, !tbaa !59
  %15 = getelementptr inbounds nuw i8, ptr %0, i64 32
  %16 = load ptr, ptr %15, align 8, !tbaa !60
  %17 = getelementptr inbounds nuw i8, ptr %1, i64 32
  store ptr %16, ptr %17, align 8, !tbaa !60
  %18 = getelementptr inbounds nuw i8, ptr %0, i64 40
  %19 = load ptr, ptr %18, align 8, !tbaa !61
  %20 = getelementptr inbounds nuw i8, ptr %1, i64 40
  store ptr %19, ptr %20, align 8, !tbaa !61
  %21 = load ptr, ptr %4, align 8, !tbaa !39
  %22 = tail call ptr @xmlNewChild(ptr noundef %21, ptr noundef null, ptr noundef %2, ptr noundef null) #11
  store ptr %22, ptr %5, align 8, !tbaa !39
  ret void
}